; Function Attrs: nounwind uwtable
define dso_local range(i32 -1, 1) i32 @_PyStaticType_InitForExtension(ptr noundef %0, ptr noundef %1) local_unnamed_addr #1 {
  %3 = getelementptr inbounds nuw i8, ptr %1, i64 168
  %4 = load i64, ptr %3, align 8, !tbaa !108
  %5 = and i64 %4, 4096
  %6 = icmp eq i64 %5, 0
  %7 = zext i1 %6 to i32
  %8 = tail call fastcc i32 @init_static_type(ptr noundef %0, ptr noundef %1, i32 noundef 0, i32 noundef %7)
  ret i32 %8
}